target datalayout = "e-m:e-p270:32:32-p271:32:32-p272:64:64-i64:64-i128:128-f80:128-n8:16:32:64-S128"
target triple = "x86_64-pc-linux-gnu"

%struct.Path_ = type { %union.SourceSpan, ptr, i32 }
%union.SourceSpan = type { i64 }
%struct.ParseContext_ = type { %struct.TokenData, i32, %union.SourceSpan, %union.SourceSpan, ptr, %struct.Lexer }
%struct.TokenData = type { ptr, i64, %union.anon.87 }
%union.anon.87 = type { %struct.anon.90 }
%struct.anon.90 = type { %struct.Int128_, i8 }
%struct.Int128_ = type { i64, i64 }
%struct.Lexer = type { ptr, ptr, ptr, ptr, i32, i32, ptr, ptr, ptr, %struct.TokenData, %union.SourceSpan, i32, i32 }

@.str.3 = private unnamed_addr constant [53 x i8] c"A module name may not have any uppercase characters.\00", align 1

; Function Attrs: nounwind uwtable
define dso_local zeroext i1 @context_set_module(ptr noundef %0, ptr noundef %1, ptr noundef %2) #0 {
  %4 = alloca i1, align 1
  %5 = alloca ptr, align 8
  %6 = alloca ptr, align 8
  %7 = alloca ptr, align 8
  store ptr %0, ptr %5, align 8
  store ptr %1, ptr %6, align 8
  store ptr %2, ptr %7, align 8
  %8 = load ptr, ptr %6, align 8
  %9 = getelementptr inbounds %struct.Path_, ptr %8, i32 0, i32 1
  %10 = load ptr, ptr %9, align 8
  %11 = call zeroext i1 @str_has_no_uppercase(ptr noundef %10)
  br i1 %11, label %17, label %12

12:                                               ; preds = %3
  %13 = load ptr, ptr %6, align 8
  %14 = getelementptr inbounds %struct.Path_, ptr %13, i32 0, i32 0
  %15 = getelementptr inbounds %union.SourceSpan, ptr %14, i32 0, i32 0
  %16 = load i64, ptr %15, align 8
  call void (i64, ptr, ...) @sema_error_at(i64 %16, ptr noundef @.str.3)
  store i1 false, ptr %4, align 1
  br label %24

17:                                               ; preds = %3
  %18 = load ptr, ptr %5, align 8
  %19 = getelementptr inbounds %struct.ParseContext_, ptr %18, i32 0, i32 4
  %20 = load ptr, ptr %19, align 8
  %21 = load ptr, ptr %6, align 8
  %22 = load ptr, ptr %7, align 8
  %23 = call zeroext i1 @create_module_or_check_name(ptr noundef %20, ptr noundef %21, ptr noundef %22)
  store i1 %23, ptr %4, align 1
  br label %24

24:                                               ; preds = %17, %12
  %25 = load i1, ptr %4, align 1
  ret i1 %25
}