; Function Attrs: nounwind uwtable
define dso_local noundef zeroext i1 @context_set_module(ptr nocapture noundef readonly %0, ptr noundef %1, ptr noundef %2) local_unnamed_addr #0 {
  %4 = getelementptr inbounds i8, ptr %1, i64 8
  %5 = load ptr, ptr %4, align 8
  %6 = tail call zeroext i1 @str_has_no_uppercase(ptr noundef %5) #6
  br i1 %6, label %9, label %7

7:                                                ; preds = %3
  %8 = load i64, ptr %1, align 8
  tail call void (i64, ptr, ...) @sema_error_at(i64 %8, ptr noundef nonnull @.str.3) #6
  br label %13

9:                                                ; preds = %3
  %10 = getelementptr inbounds i8, ptr %0, i64 64
  %11 = load ptr, ptr %10, align 8
  %12 = tail call fastcc zeroext i1 @create_module_or_check_name(ptr noundef %11, ptr noundef nonnull %1, ptr noundef %2)
  br label %13

13:                                               ; preds = %9, %7
  %.0 = phi i1 [ %12, %9 ], [ false, %7 ]
  ret i1 %.0
}